; Function Attrs: mustprogress uwtable
define noundef nonnull align 8 dereferenceable(32) ptr @_ZNK8proxygen11HeaderTable9getHeaderEj(ptr nocapture noundef nonnull readonly align 8 dereferenceable(80) %this, i32 noundef %index) local_unnamed_addr #4 align 2 personality ptr @__gxx_personality_v0 {
entry:
  %ref.tmp2 = alloca %"class.google::LogMessageFatal", align 8
  %call = tail call noundef zeroext i1 @_ZNK8proxygen11HeaderTable7isValidEj(ptr noundef nonnull align 8 dereferenceable(80) %this, i32 noundef %index)
  br i1 %call, label %cleanup.done, label %cond.false

cond.false:                                       ; preds = %entry
  call void @_ZN6google15LogMessageFatalC1EPKci(ptr noundef nonnull align 8 dereferenceable(96) %ref.tmp2, ptr noundef nonnull @.str, i32 noundef 106)
  %call3 = invoke noundef nonnull align 8 dereferenceable(8) ptr @_ZN6google10LogMessage6streamEv(ptr noundef nonnull align 8 dereferenceable(96) %ref.tmp2)
          to label %invoke.cont unwind label %lpad

invoke.cont:                                      ; preds = %cond.false
  %call5 = invoke noundef nonnull align 8 dereferenceable(8) ptr @_ZStlsISt11char_traitsIcEERSt13basic_ostreamIcT_ES5_PKc(ptr noundef nonnull align 8 dereferenceable(8) %call3, ptr noundef nonnull @.str.2)
          to label %cleanup.action unwind label %lpad

cleanup.action:                                   ; preds = %invoke.cont
  call void @_ZN6google15LogMessageFatalD1Ev(ptr noundef nonnull align 8 dereferenceable(96) %ref.tmp2) #30
  unreachable

lpad:                                             ; preds = %invoke.cont, %cond.false
  %0 = landingpad { ptr, i32 }
          cleanup
  call void @_ZN6google15LogMessageFatalD1Ev(ptr noundef nonnull align 8 dereferenceable(96) %ref.tmp2) #30
  unreachable

cleanup.done:                                     ; preds = %entry
  %table_ = getelementptr inbounds i8, ptr %this, i64 16
  %head_.i = getelementptr inbounds i8, ptr %this, i64 44
  %1 = load i32, ptr %head_.i, align 4
  %_M_finish.i.i.i = getelementptr inbounds i8, ptr %this, i64 24
  %2 = load ptr, ptr %_M_finish.i.i.i, align 8
  %3 = load ptr, ptr %table_, align 8
  %sub.ptr.lhs.cast.i.i.i = ptrtoint ptr %2 to i64
  %sub.ptr.rhs.cast.i.i.i = ptrtoint ptr %3 to i64
  %sub.ptr.sub.i.i.i = sub i64 %sub.ptr.lhs.cast.i.i.i, %sub.ptr.rhs.cast.i.i.i
  %sub.ptr.div.i.i.i = lshr exact i64 %sub.ptr.sub.i.i.i, 5
  %conv.i = trunc i64 %sub.ptr.div.i.i.i to i32
  %reass.sub = sub i32 %1, %index
  %add.i.i = add i32 %reass.sub, 1
  %sub.i.i = add i32 %add.i.i, %conv.i
  %rem.i.i = urem i32 %sub.i.i, %conv.i
  %conv = zext i32 %rem.i.i to i64
  %add.ptr.i = getelementptr inbounds %"class.proxygen::HPACKHeader", ptr %3, i64 %conv
  ret ptr %add.ptr.i
}